target datalayout = "e-m:e-p270:32:32-p271:32:32-p272:64:64-i64:64-i128:128-f80:128-n8:16:32:64-S128"
target triple = "x86_64-pc-linux-gnu"

; Function Attrs: nounwind uwtable
define internal void @crossfade_samples_dbl(ptr noundef %0, ptr noundef %1, ptr noundef %2, i32 noundef %3, i32 noundef %4, i32 noundef %5, i32 noundef %6) #1 {
  %8 = alloca ptr, align 8
  %9 = alloca ptr, align 8
  %10 = alloca ptr, align 8
  %11 = alloca i32, align 4
  %12 = alloca i32, align 4
  %13 = alloca i32, align 4
  %14 = alloca i32, align 4
  %15 = alloca ptr, align 8
  %16 = alloca ptr, align 8
  %17 = alloca ptr, align 8
  %18 = alloca i32, align 4
  %19 = alloca i32, align 4
  %20 = alloca i32, align 4
  %21 = alloca double, align 8
  %22 = alloca double, align 8
  store ptr %0, ptr %8, align 8, !tbaa !77
  store ptr %1, ptr %9, align 8, !tbaa !77
  store ptr %2, ptr %10, align 8, !tbaa !77
  store i32 %3, ptr %11, align 4, !tbaa !30
  store i32 %4, ptr %12, align 4, !tbaa !30
  store i32 %5, ptr %13, align 4, !tbaa !30
  store i32 %6, ptr %14, align 4, !tbaa !30
  call void @llvm.lifetime.start.p0(i64 8, ptr %15) #10
  %23 = load ptr, ptr %8, align 8, !tbaa !77
  %24 = getelementptr inbounds ptr, ptr %23, i64 0
  %25 = load ptr, ptr %24, align 8, !tbaa !29
  store ptr %25, ptr %15, align 8, !tbaa !79
  call void @llvm.lifetime.start.p0(i64 8, ptr %16) #10
  %26 = load ptr, ptr %9, align 8, !tbaa !77
  %27 = getelementptr inbounds ptr, ptr %26, i64 0
  %28 = load ptr, ptr %27, align 8, !tbaa !29
  store ptr %28, ptr %16, align 8, !tbaa !79
  call void @llvm.lifetime.start.p0(i64 8, ptr %17) #10
  %29 = load ptr, ptr %10, align 8, !tbaa !77
  %30 = getelementptr inbounds ptr, ptr %29, i64 0
  %31 = load ptr, ptr %30, align 8, !tbaa !29
  store ptr %31, ptr %17, align 8, !tbaa !79
  call void @llvm.lifetime.start.p0(i64 4, ptr %18) #10
  call void @llvm.lifetime.start.p0(i64 4, ptr %19) #10
  call void @llvm.lifetime.start.p0(i64 4, ptr %20) #10
  store i32 0, ptr %20, align 4, !tbaa !30
  store i32 0, ptr %18, align 4, !tbaa !30
  br label %32

32:                                               ; preds = %81, %7
  %33 = load i32, ptr %18, align 4, !tbaa !30
  %34 = load i32, ptr %11, align 4, !tbaa !30
  %35 = icmp slt i32 %33, %34
  br i1 %35, label %36, label %84

36:                                               ; preds = %32
  call void @llvm.lifetime.start.p0(i64 8, ptr %21) #10
  %37 = load i32, ptr %13, align 4, !tbaa !30
  %38 = load i32, ptr %11, align 4, !tbaa !30
  %39 = sub nsw i32 %38, 1
  %40 = load i32, ptr %18, align 4, !tbaa !30
  %41 = sub nsw i32 %39, %40
  %42 = sext i32 %41 to i64
  %43 = load i32, ptr %11, align 4, !tbaa !30
  %44 = sext i32 %43 to i64
  %45 = call nsz double @fade_gain(i32 noundef %37, i64 noundef %42, i64 noundef %44, double noundef 0.000000e+00, double noundef 1.000000e+00)
  store double %45, ptr %21, align 8, !tbaa !78
  call void @llvm.lifetime.start.p0(i64 8, ptr %22) #10
  %46 = load i32, ptr %14, align 4, !tbaa !30
  %47 = load i32, ptr %18, align 4, !tbaa !30
  %48 = sext i32 %47 to i64
  %49 = load i32, ptr %11, align 4, !tbaa !30
  %50 = sext i32 %49 to i64
  %51 = call nsz double @fade_gain(i32 noundef %46, i64 noundef %48, i64 noundef %50, double noundef 0.000000e+00, double noundef 1.000000e+00)
  store double %51, ptr %22, align 8, !tbaa !78
  store i32 0, ptr %19, align 4, !tbaa !30
  br label %52

52:                                               ; preds = %75, %36
  %53 = load i32, ptr %19, align 4, !tbaa !30
  %54 = load i32, ptr %12, align 4, !tbaa !30
  %55 = icmp slt i32 %53, %54
  br i1 %55, label %56, label %80

56:                                               ; preds = %52
  %57 = load ptr, ptr %16, align 8, !tbaa !79
  %58 = load i32, ptr %20, align 4, !tbaa !30
  %59 = sext i32 %58 to i64
  %60 = getelementptr inbounds double, ptr %57, i64 %59
  %61 = load double, ptr %60, align 8, !tbaa !78
  %62 = load double, ptr %21, align 8, !tbaa !78
  %63 = load ptr, ptr %17, align 8, !tbaa !79
  %64 = load i32, ptr %20, align 4, !tbaa !30
  %65 = sext i32 %64 to i64
  %66 = getelementptr inbounds double, ptr %63, i64 %65
  %67 = load double, ptr %66, align 8, !tbaa !78
  %68 = load double, ptr %22, align 8, !tbaa !78
  %69 = fmul nsz double %67, %68
  %70 = call nsz double @llvm.fmuladd.f64(double %61, double %62, double %69)
  %71 = load ptr, ptr %15, align 8, !tbaa !79
  %72 = load i32, ptr %20, align 4, !tbaa !30
  %73 = sext i32 %72 to i64
  %74 = getelementptr inbounds double, ptr %71, i64 %73
  store double %70, ptr %74, align 8, !tbaa !78
  br label %75

75:                                               ; preds = %56
  %76 = load i32, ptr %19, align 4, !tbaa !30
  %77 = add nsw i32 %76, 1
  store i32 %77, ptr %19, align 4, !tbaa !30
  %78 = load i32, ptr %20, align 4, !tbaa !30
  %79 = add nsw i32 %78, 1
  store i32 %79, ptr %20, align 4, !tbaa !30
  br label %52, !llvm.loop !123

80:                                               ; preds = %52
  call void @llvm.lifetime.end.p0(i64 8, ptr %22) #10
  call void @llvm.lifetime.end.p0(i64 8, ptr %21) #10
  br label %81

81:                                               ; preds = %80
  %82 = load i32, ptr %18, align 4, !tbaa !30
  %83 = add nsw i32 %82, 1
  store i32 %83, ptr %18, align 4, !tbaa !30
  br label %32, !llvm.loop !124

84:                                               ; preds = %32
  call void @llvm.lifetime.end.p0(i64 4, ptr %20) #10
  call void @llvm.lifetime.end.p0(i64 4, ptr %19) #10
  call void @llvm.lifetime.end.p0(i64 4, ptr %18) #10
  call void @llvm.lifetime.end.p0(i64 8, ptr %17) #10
  call void @llvm.lifetime.end.p0(i64 8, ptr %16) #10
  call void @llvm.lifetime.end.p0(i64 8, ptr %15) #10
  ret void
}